; Function Attrs: nounwind uwtable
define dso_local range(i32 0, 3) i32 @XML_ResumeParser(ptr noundef %0) local_unnamed_addr #0 {
  %2 = icmp eq ptr %0, null
  br i1 %2, label %84, label %3

3:                                                ; preds = %1
  %4 = getelementptr inbounds nuw i8, ptr %0, i64 896
  %5 = load i32, ptr %4, align 8, !tbaa !79
  %.not = icmp eq i32 %5, 3
  br i1 %.not, label %8, label %6

6:                                                ; preds = %3
  %7 = getelementptr inbounds nuw i8, ptr %0, i64 528
  store i32 34, ptr %7, align 8, !tbaa !71
  br label %84

8:                                                ; preds = %3
  store i32 1, ptr %4, align 8, !tbaa !79
  %9 = getelementptr inbounds nuw i8, ptr %0, i64 48
  %10 = load ptr, ptr %9, align 8, !tbaa !67
  %11 = getelementptr inbounds nuw i8, ptr %0, i64 80
  %12 = load ptr, ptr %11, align 8, !tbaa !202
  %13 = icmp ne ptr %12, null
  %14 = icmp ne ptr %10, null
  %or.cond.i = and i1 %14, %13
  %15 = ptrtoint ptr %12 to i64
  %16 = ptrtoint ptr %10 to i64
  %17 = sub i64 %15, %16
  %18 = select i1 %or.cond.i, i64 %17, i64 0
  %19 = getelementptr inbounds nuw i8, ptr %0, i64 96
  %20 = load i8, ptr %19, align 8, !tbaa !69
  %.not.i = icmp eq i8 %20, 0
  br i1 %.not.i, label %.critedge.i, label %21

21:                                               ; preds = %8
  %22 = getelementptr inbounds nuw i8, ptr %0, i64 900
  %23 = load i8, ptr %22, align 4, !tbaa !187
  %.not44.i = icmp eq i8 %23, 0
  br i1 %.not44.i, label %24, label %.critedge.i

24:                                               ; preds = %21
  %25 = getelementptr inbounds nuw i8, ptr %0, i64 88
  %26 = load i64, ptr %25, align 8, !tbaa !204
  %.not45.i = icmp eq ptr %10, null
  br i1 %.not45.i, label %33, label %27

27:                                               ; preds = %24
  %28 = getelementptr inbounds nuw i8, ptr %0, i64 16
  %29 = load ptr, ptr %28, align 8, !tbaa !12
  %.not46.i = icmp eq ptr %29, null
  br i1 %.not46.i, label %33, label %30

30:                                               ; preds = %27
  %31 = ptrtoint ptr %29 to i64
  %32 = sub i64 %16, %31
  br label %33

33:                                               ; preds = %30, %27, %24
  %34 = phi i64 [ %32, %30 ], [ 0, %27 ], [ 0, %24 ]
  %35 = tail call i64 @llvm.usub.sat.i64(i64 %34, i64 1024)
  %36 = getelementptr inbounds nuw i8, ptr %0, i64 64
  %37 = load ptr, ptr %36, align 8, !tbaa !31
  %.not47.i = icmp eq ptr %37, null
  br i1 %.not47.i, label %45, label %38

38:                                               ; preds = %33
  %39 = getelementptr inbounds nuw i8, ptr %0, i64 56
  %40 = load ptr, ptr %39, align 8, !tbaa !68
  %.not48.i = icmp eq ptr %40, null
  br i1 %.not48.i, label %45, label %41

41:                                               ; preds = %38
  %42 = ptrtoint ptr %37 to i64
  %43 = ptrtoint ptr %40 to i64
  %44 = sub i64 %42, %43
  br label %45

45:                                               ; preds = %41, %38, %33
  %46 = phi i64 [ %44, %41 ], [ 0, %38 ], [ 0, %33 ]
  %47 = shl i64 %26, 1
  %.not49.i = icmp ult i64 %18, %47
  br i1 %.not49.i, label %48, label %.critedge.i

48:                                               ; preds = %45
  %49 = add i64 %46, %35
  %50 = getelementptr inbounds nuw i8, ptr %0, i64 100
  %51 = load i32, ptr %50, align 4, !tbaa !70
  %52 = sext i32 %51 to i64
  %53 = icmp ult i64 %49, %52
  br i1 %53, label %.critedge.i, label %66

.critedge.i:                                      ; preds = %48, %45, %21, %8
  %54 = getelementptr inbounds nuw i8, ptr %0, i64 520
  %55 = load ptr, ptr %54, align 8, !tbaa !61
  %56 = tail call i32 %55(ptr noundef nonnull %0, ptr noundef %10, ptr noundef %12, ptr noundef nonnull %9) #23
  %57 = icmp eq i32 %56, 0
  br i1 %57, label %.sink.split, label %61

.sink.split:                                      ; preds = %.critedge.i
  %58 = load ptr, ptr %9, align 8, !tbaa !185
  %59 = icmp eq ptr %58, %10
  %60 = getelementptr inbounds nuw i8, ptr %0, i64 88
  %. = select i1 %59, i64 %18, i64 0
  store i64 %., ptr %60, align 8, !tbaa !204
  br label %66

61:                                               ; preds = %.critedge.i
  %62 = getelementptr inbounds nuw i8, ptr %0, i64 528
  store i32 %56, ptr %62, align 8, !tbaa !71
  %63 = getelementptr inbounds nuw i8, ptr %0, i64 536
  %64 = load ptr, ptr %63, align 8, !tbaa !188
  %65 = getelementptr inbounds nuw i8, ptr %0, i64 544
  store ptr %64, ptr %65, align 8, !tbaa !205
  store ptr @errorProcessor, ptr %54, align 8, !tbaa !61
  br label %84

66:                                               ; preds = %.sink.split, %48
  %67 = phi ptr [ %10, %48 ], [ %58, %.sink.split ]
  %68 = getelementptr inbounds nuw i8, ptr %0, i64 528
  store i32 0, ptr %68, align 8, !tbaa !71
  %69 = load i32, ptr %4, align 8, !tbaa !79
  switch i32 %69, label %75 [
    i32 3, label %70
    i32 0, label %71
    i32 1, label %71
  ]

70:                                               ; preds = %66
  br label %75

71:                                               ; preds = %66, %66
  %72 = getelementptr inbounds nuw i8, ptr %0, i64 900
  %73 = load i8, ptr %72, align 4, !tbaa !187
  %.not28 = icmp eq i8 %73, 0
  br i1 %.not28, label %75, label %74

74:                                               ; preds = %71
  store i32 2, ptr %4, align 8, !tbaa !79
  br label %84

75:                                               ; preds = %70, %71, %66
  %.0 = phi i32 [ 1, %66 ], [ 1, %71 ], [ 2, %70 ]
  %76 = getelementptr inbounds nuw i8, ptr %0, i64 304
  %77 = load ptr, ptr %76, align 8, !tbaa !186
  %78 = getelementptr inbounds nuw i8, ptr %77, i64 88
  %79 = load ptr, ptr %78, align 8, !tbaa !206
  %80 = getelementptr inbounds nuw i8, ptr %0, i64 552
  %81 = load ptr, ptr %80, align 8, !tbaa !201
  %82 = getelementptr inbounds nuw i8, ptr %0, i64 760
  tail call void %79(ptr noundef %77, ptr noundef %81, ptr noundef %67, ptr noundef nonnull %82) #23
  %83 = load ptr, ptr %9, align 8, !tbaa !67
  store ptr %83, ptr %80, align 8, !tbaa !201
  br label %84

84:                                               ; preds = %1, %75, %74, %61, %6
  %.025 = phi i32 [ 0, %6 ], [ 0, %61 ], [ %.0, %75 ], [ 1, %74 ], [ 0, %1 ]
  ret i32 %.025
}